; Function Attrs: nounwind uwtable
define hidden void @X11_MinimizeWindow(ptr noundef readnone captures(none) %0, ptr noundef %1) local_unnamed_addr #0 {
  %3 = getelementptr inbounds nuw i8, ptr %1, i64 392
  %4 = load ptr, ptr %3, align 8
  %5 = tail call ptr @SDL_GetDisplayDriverDataForWindow(ptr noundef %1) #12
  %6 = getelementptr inbounds nuw i8, ptr %4, i64 336
  %7 = load ptr, ptr %6, align 8
  %8 = load ptr, ptr %7, align 8
  %9 = getelementptr inbounds nuw i8, ptr %4, i64 528
  %10 = load i32, ptr %9, align 8
  %11 = and i32 %10, 1
  %.not = icmp eq i32 %11, 0
  br i1 %.not, label %14, label %12

12:                                               ; preds = %2
  %13 = tail call zeroext i1 @SDL_SyncWindow_REAL(ptr noundef nonnull %1) #12
  %.pre = load i32, ptr %9, align 8
  br label %14

14:                                               ; preds = %12, %2
  %15 = phi i32 [ %.pre, %12 ], [ %10, %2 ]
  %16 = or i32 %15, 2
  store i32 %16, ptr %9, align 8
  %17 = getelementptr inbounds nuw i8, ptr %1, i64 72
  %18 = load i64, ptr %17, align 8
  %19 = and i64 %18, 1
  %.not13 = icmp eq i64 %19, 0
  br i1 %.not13, label %20, label %25

20:                                               ; preds = %14
  %21 = and i64 %18, 128
  %22 = icmp ne i64 %21, 0
  %23 = getelementptr inbounds nuw i8, ptr %4, i64 538
  %24 = zext i1 %22 to i8
  store i8 %24, ptr %23, align 2
  br label %25

25:                                               ; preds = %20, %14
  %26 = load ptr, ptr @X11_XIconifyWindow, align 8
  %27 = getelementptr inbounds nuw i8, ptr %4, i64 8
  %28 = load i64, ptr %27, align 8
  %29 = load i32, ptr %5, align 8
  %30 = tail call i32 %26(ptr noundef %8, i64 noundef %28, i32 noundef %29) #12
  %31 = load ptr, ptr @X11_XFlush, align 8
  %32 = tail call i32 %31(ptr noundef %8) #12
  ret void
}